; Function Attrs: nounwind uwtable
define dso_local range(i32 0, 2) i32 @version_main(i32 noundef %0, ptr noundef %1) local_unnamed_addr #0 {
  %3 = tail call ptr @opt_init(i32 noundef %0, ptr noundef %1, ptr noundef nonnull @version_options) #4
  br label %4

4:                                                ; preds = %.backedge, %2
  %.036 = phi i32 [ 0, %2 ], [ %.036.be, %.backedge ]
  %.034 = phi i32 [ 0, %2 ], [ %.034.be, %.backedge ]
  %.032 = phi i32 [ 0, %2 ], [ %.032.be, %.backedge ]
  %.030 = phi i32 [ 0, %2 ], [ %.030.be, %.backedge ]
  %.028 = phi i32 [ 0, %2 ], [ %.028.be, %.backedge ]
  %.026 = phi i32 [ 0, %2 ], [ %.026.be, %.backedge ]
  %.024 = phi i32 [ 0, %2 ], [ %.024.be, %.backedge ]
  %.022 = phi i32 [ 0, %2 ], [ %.022.be, %.backedge ]
  %.020 = phi i32 [ 0, %2 ], [ %.020.be, %.backedge ]
  %.018 = phi i32 [ 0, %2 ], [ %.018.be, %.backedge ]
  %.017 = phi i32 [ 0, %2 ], [ %.017.be, %.backedge ]
  %5 = tail call i32 @opt_next() #4
  switch i32 %5, label %.backedge [
    i32 0, label %20
    i32 10, label %19
    i32 -1, label %.loopexit
    i32 1, label %8
    i32 2, label %9
    i32 3, label %10
    i32 4, label %11
    i32 5, label %12
    i32 6, label %13
    i32 7, label %14
    i32 8, label %15
    i32 11, label %16
    i32 9, label %17
    i32 12, label %18
  ]

.backedge:                                        ; preds = %4, %19, %18, %17, %16, %15, %14, %13, %12, %11, %10, %9
  %.036.be = phi i32 [ 1, %19 ], [ %.036, %18 ], [ %.036, %17 ], [ %.036, %16 ], [ %.036, %15 ], [ %.036, %14 ], [ 1, %13 ], [ %.036, %12 ], [ %.036, %11 ], [ %.036, %10 ], [ %.036, %9 ], [ %.036, %4 ]
  %.034.be = phi i32 [ 1, %19 ], [ %.034, %18 ], [ 1, %17 ], [ %.034, %16 ], [ %.034, %15 ], [ %.034, %14 ], [ %.034, %13 ], [ %.034, %12 ], [ %.034, %11 ], [ %.034, %10 ], [ %.034, %9 ], [ %.034, %4 ]
  %.032.be = phi i32 [ 1, %19 ], [ %.032, %18 ], [ %.032, %17 ], [ %.032, %16 ], [ %.032, %15 ], [ %.032, %14 ], [ %.032, %13 ], [ %.032, %12 ], [ %.032, %11 ], [ %.032, %10 ], [ 1, %9 ], [ %.032, %4 ]
  %.030.be = phi i32 [ 1, %19 ], [ %.030, %18 ], [ %.030, %17 ], [ %.030, %16 ], [ %.030, %15 ], [ 1, %14 ], [ %.030, %13 ], [ %.030, %12 ], [ %.030, %11 ], [ %.030, %10 ], [ %.030, %9 ], [ %.030, %4 ]
  %.028.be = phi i32 [ 1, %19 ], [ %.028, %18 ], [ %.028, %17 ], [ %.028, %16 ], [ 1, %15 ], [ %.028, %14 ], [ %.028, %13 ], [ %.028, %12 ], [ %.028, %11 ], [ %.028, %10 ], [ %.028, %9 ], [ %.028, %4 ]
  %.026.be = phi i32 [ 1, %19 ], [ %.026, %18 ], [ %.026, %17 ], [ %.026, %16 ], [ %.026, %15 ], [ %.026, %14 ], [ %.026, %13 ], [ %.026, %12 ], [ %.026, %11 ], [ 1, %10 ], [ %.026, %9 ], [ %.026, %4 ]
  %.024.be = phi i32 [ 1, %19 ], [ %.024, %18 ], [ %.024, %17 ], [ %.024, %16 ], [ %.024, %15 ], [ %.024, %14 ], [ %.024, %13 ], [ %.024, %12 ], [ 1, %11 ], [ %.024, %10 ], [ %.024, %9 ], [ %.024, %4 ]
  %.022.be = phi i32 [ 1, %19 ], [ %.022, %18 ], [ %.022, %17 ], [ %.022, %16 ], [ %.022, %15 ], [ %.022, %14 ], [ %.022, %13 ], [ 1, %12 ], [ %.022, %11 ], [ %.022, %10 ], [ %.022, %9 ], [ %.022, %4 ]
  %.020.be = phi i32 [ 1, %19 ], [ 1, %18 ], [ %.020, %17 ], [ %.020, %16 ], [ %.020, %15 ], [ %.020, %14 ], [ %.020, %13 ], [ %.020, %12 ], [ %.020, %11 ], [ %.020, %10 ], [ %.020, %9 ], [ %.020, %4 ]
  %.018.be = phi i32 [ 1, %19 ], [ %.018, %18 ], [ %.018, %17 ], [ 1, %16 ], [ %.018, %15 ], [ %.018, %14 ], [ %.018, %13 ], [ %.018, %12 ], [ %.018, %11 ], [ %.018, %10 ], [ %.018, %9 ], [ %.018, %4 ]
  %.017.be = phi i32 [ %.017, %19 ], [ 1, %18 ], [ 1, %17 ], [ 1, %16 ], [ 1, %15 ], [ 1, %14 ], [ 1, %13 ], [ 1, %12 ], [ 1, %11 ], [ 1, %10 ], [ 1, %9 ], [ %.017, %4 ]
  br label %4, !llvm.loop !4

.loopexit:                                        ; preds = %4, %20
  %6 = load ptr, ptr @bio_err, align 8, !tbaa !6
  %7 = tail call i32 (ptr, ptr, ...) @BIO_printf(ptr noundef %6, ptr noundef nonnull @.str.26, ptr noundef %3) #4
  br label %57

8:                                                ; preds = %4
  tail call void @opt_help(ptr noundef nonnull @version_options) #4
  br label %57

9:                                                ; preds = %4
  br label %.backedge

10:                                               ; preds = %4
  br label %.backedge

11:                                               ; preds = %4
  br label %.backedge

12:                                               ; preds = %4
  br label %.backedge

13:                                               ; preds = %4
  br label %.backedge

14:                                               ; preds = %4
  br label %.backedge

15:                                               ; preds = %4
  br label %.backedge

16:                                               ; preds = %4
  br label %.backedge

17:                                               ; preds = %4
  br label %.backedge

18:                                               ; preds = %4
  br label %.backedge

19:                                               ; preds = %4
  br label %.backedge

20:                                               ; preds = %4
  %21 = tail call i32 @opt_check_rest_arg(ptr noundef null) #4
  %.not39 = icmp eq i32 %21, 0
  br i1 %.not39, label %.loopexit, label %22

22:                                               ; preds = %20
  %.not40 = icmp ne i32 %.017, 0
  %.not4158 = icmp eq i32 %.034, 0
  %.not41 = select i1 %.not40, i1 %.not4158, i1 false
  br i1 %.not41, label %26, label %23

23:                                               ; preds = %22
  %24 = tail call ptr @OpenSSL_version(i32 noundef 0) #4
  %25 = tail call i32 (ptr, ...) @printf(ptr noundef nonnull dereferenceable(1) @.str.27, ptr noundef nonnull @.str.28, ptr noundef %24)
  br label %26

26:                                               ; preds = %23, %22
  %.not42 = icmp eq i32 %.032, 0
  br i1 %.not42, label %29, label %27

27:                                               ; preds = %26
  %28 = tail call ptr @OpenSSL_version(i32 noundef 2) #4
  %puts = tail call i32 @puts(ptr nonnull dereferenceable(1) %28)
  br label %29

29:                                               ; preds = %27, %26
  %.not43 = icmp eq i32 %.028, 0
  br i1 %.not43, label %32, label %30

30:                                               ; preds = %29
  %31 = tail call ptr @OpenSSL_version(i32 noundef 3) #4
  %puts44 = tail call i32 @puts(ptr nonnull dereferenceable(1) %31)
  br label %32

32:                                               ; preds = %30, %29
  %.not45 = icmp eq i32 %.030, 0
  br i1 %.not45, label %37, label %33

33:                                               ; preds = %32
  %34 = tail call i32 (ptr, ...) @printf(ptr noundef nonnull dereferenceable(1) @.str.30)
  %35 = tail call ptr @BN_options() #4
  %36 = tail call i32 (ptr, ...) @printf(ptr noundef nonnull dereferenceable(1) @.str.31, ptr noundef %35)
  %putchar = tail call i32 @putchar(i32 10)
  br label %37

37:                                               ; preds = %33, %32
  %.not46 = icmp eq i32 %.036, 0
  br i1 %.not46, label %40, label %38

38:                                               ; preds = %37
  %39 = tail call ptr @OpenSSL_version(i32 noundef 1) #4
  %puts47 = tail call i32 @puts(ptr nonnull dereferenceable(1) %39)
  br label %40

40:                                               ; preds = %38, %37
  %.not48 = icmp eq i32 %.026, 0
  br i1 %.not48, label %43, label %41

41:                                               ; preds = %40
  %42 = tail call ptr @OpenSSL_version(i32 noundef 4) #4
  %puts49 = tail call i32 @puts(ptr nonnull dereferenceable(1) %42)
  br label %43

43:                                               ; preds = %41, %40
  %.not50 = icmp eq i32 %.024, 0
  br i1 %.not50, label %46, label %44

44:                                               ; preds = %43
  %45 = tail call ptr @OpenSSL_version(i32 noundef 5) #4
  %puts51 = tail call i32 @puts(ptr nonnull dereferenceable(1) %45)
  br label %46

46:                                               ; preds = %44, %43
  %.not52 = icmp eq i32 %.022, 0
  br i1 %.not52, label %49, label %47

47:                                               ; preds = %46
  %48 = tail call ptr @OpenSSL_version(i32 noundef 8) #4
  %puts53 = tail call i32 @puts(ptr nonnull dereferenceable(1) %48)
  br label %49

49:                                               ; preds = %47, %46
  %.not54 = icmp eq i32 %.018, 0
  br i1 %.not54, label %54, label %50

50:                                               ; preds = %49
  %51 = tail call ptr @OPENSSL_info(i32 noundef 1007) #4
  %.not55 = icmp eq ptr %51, null
  %52 = select i1 %.not55, ptr @.str.34, ptr %51
  %53 = tail call i32 (ptr, ...) @printf(ptr noundef nonnull dereferenceable(1) @.str.33, ptr noundef nonnull %52)
  br label %54

54:                                               ; preds = %50, %49
  %.not56 = icmp eq i32 %.020, 0
  br i1 %.not56, label %57, label %55

55:                                               ; preds = %54
  %56 = tail call ptr @OpenSSL_version(i32 noundef 9) #4
  %puts57 = tail call i32 @puts(ptr nonnull dereferenceable(1) %56)
  br label %57

57:                                               ; preds = %54, %55, %8, %.loopexit
  %.0 = phi i32 [ 0, %8 ], [ 1, %.loopexit ], [ 0, %55 ], [ 0, %54 ]
  ret i32 %.0
}